; Function Attrs: mustprogress uwtable
define void @UCNV_FROM_U_CALLBACK_SUBSTITUTE_77(ptr noundef readonly %0, ptr noundef %1, ptr readnone captures(none) %2, i32 %3, i32 noundef %4, i32 noundef %5, ptr noundef %6) #3 {
  %8 = icmp slt i32 %5, 3
  br i1 %8, label %9, label %29

9:                                                ; preds = %7
  %10 = icmp eq i32 %5, 0
  br i1 %10, label %11, label %23

11:                                               ; preds = %9
  switch i32 %4, label %12 [
    i32 4448, label %22
    i32 4447, label %22
    i32 1564, label %22
    i32 847, label %22
    i32 173, label %22
    i32 8238, label %22
    i32 8237, label %22
    i32 8236, label %22
    i32 8235, label %22
    i32 8234, label %22
    i32 8207, label %22
    i32 8206, label %22
    i32 8205, label %22
    i32 8204, label %22
    i32 8203, label %22
    i32 6159, label %22
    i32 6158, label %22
    i32 6157, label %22
    i32 6156, label %22
    i32 6155, label %22
    i32 6069, label %22
    i32 6068, label %22
  ]

12:                                               ; preds = %11
  %13 = and i32 %4, -16
  %or.cond17 = icmp eq i32 %13, 8288
  %14 = icmp eq i32 %4, 12644
  %or.cond19 = or i1 %14, %or.cond17
  br i1 %or.cond19, label %22, label %15

15:                                               ; preds = %12
  %or.cond21 = icmp eq i32 %13, 65024
  %16 = icmp eq i32 %4, 65279
  %or.cond23 = or i1 %16, %or.cond21
  %17 = icmp eq i32 %4, 65440
  %or.cond25 = or i1 %17, %or.cond23
  %18 = add i32 %4, -65520
  %or.cond27 = icmp ult i32 %18, 9
  %or.cond75 = or i1 %or.cond27, %or.cond25
  %19 = and i32 %4, -4
  %or.cond29 = icmp eq i32 %19, 113824
  %or.cond76 = or i1 %or.cond29, %or.cond75
  %20 = add i32 %4, -119155
  %or.cond31 = icmp ult i32 %20, 8
  %or.cond77 = or i1 %or.cond31, %or.cond76
  %21 = and i32 %4, -4096
  %or.cond33 = icmp eq i32 %21, 917504
  %or.cond78 = or i1 %or.cond33, %or.cond77
  br i1 %or.cond78, label %22, label %23

22:                                               ; preds = %11, %11, %11, %11, %11, %11, %11, %11, %11, %11, %11, %11, %11, %11, %11, %11, %11, %11, %11, %11, %11, %11, %15, %12
  store i32 0, ptr %6, align 4, !tbaa !3
  br label %29

23:                                               ; preds = %15, %9
  %24 = icmp eq ptr %0, null
  br i1 %24, label %28, label %25

25:                                               ; preds = %23
  %26 = load i8, ptr %0, align 1, !tbaa !7
  %27 = icmp eq i8 %26, 105
  %or.cond35 = and i1 %10, %27
  br i1 %or.cond35, label %28, label %29

28:                                               ; preds = %25, %23
  store i32 0, ptr %6, align 4, !tbaa !3
  tail call void @ucnv_cbFromUWriteSub_77(ptr noundef %1, i32 noundef 0, ptr noundef nonnull %6)
  br label %29

29:                                               ; preds = %22, %28, %25, %7
  ret void
}